; Function Attrs: nounwind uwtable
define range(i32 -22, 1) i32 @ffio_open_dyn_packet_buf(ptr noundef writeonly captures(none) %0, i32 noundef %1) local_unnamed_addr #3 {
  %3 = icmp slt i32 %1, 1
  br i1 %3, label %url_open_dyn_buf_internal.exit, label %4

4:                                                ; preds = %2
  %narrow.i = add nuw i32 %1, 312
  %5 = zext i32 %narrow.i to i64
  %6 = tail call noalias ptr @av_mallocz(i64 noundef %5) #14
  %.not21.i = icmp eq ptr %6, null
  br i1 %.not21.i, label %url_open_dyn_buf_internal.exit, label %7

7:                                                ; preds = %4
  %8 = getelementptr inbounds nuw i8, ptr %6, i64 280
  %9 = getelementptr inbounds nuw i8, ptr %6, i64 304
  store i32 %1, ptr %9, align 8, !tbaa !77
  %10 = getelementptr inbounds nuw i8, ptr %6, i64 308
  tail call void @llvm.memset.p0.i64(ptr noundef nonnull align 8 dereferenceable(280) %6, i8 0, i64 280, i1 false)
  %11 = getelementptr inbounds nuw i8, ptr %6, i64 8
  store ptr %10, ptr %11, align 8, !tbaa !4
  %12 = getelementptr inbounds nuw i8, ptr %6, i64 16
  store i32 %1, ptr %12, align 8, !tbaa !13
  %13 = getelementptr inbounds nuw i8, ptr %6, i64 264
  store i32 %1, ptr %13, align 8, !tbaa !14
  %14 = getelementptr inbounds nuw i8, ptr %6, i64 24
  store ptr %10, ptr %14, align 8, !tbaa !16
  %15 = getelementptr inbounds nuw i8, ptr %6, i64 184
  store ptr %10, ptr %15, align 8, !tbaa !17
  %16 = getelementptr inbounds nuw i8, ptr %6, i64 40
  store ptr %8, ptr %16, align 8, !tbaa !18
  %.sink7.i.idx.i.i = zext nneg i32 %1 to i64
  %.sink7.i.i.i = getelementptr inbounds nuw i8, ptr %10, i64 %.sink7.i.idx.i.i
  %17 = getelementptr inbounds nuw i8, ptr %6, i64 32
  store ptr %.sink7.i.i.i, ptr %17, align 8, !tbaa !19
  %18 = getelementptr inbounds nuw i8, ptr %6, i64 88
  store i32 1, ptr %18, align 8, !tbaa !20
  %19 = getelementptr inbounds nuw i8, ptr %6, i64 56
  store ptr @dyn_packet_buf_write, ptr %19, align 8, !tbaa !21
  %20 = getelementptr inbounds nuw i8, ptr %6, i64 64
  %21 = getelementptr inbounds nuw i8, ptr %6, i64 92
  %22 = getelementptr inbounds nuw i8, ptr %6, i64 216
  tail call void @llvm.memset.p0.i64(ptr noundef nonnull align 8 dereferenceable(24) %20, i8 0, i64 24, i1 false)
  store i32 32768, ptr %22, align 8, !tbaa !26
  %23 = getelementptr inbounds nuw i8, ptr %6, i64 128
  %24 = getelementptr inbounds nuw i8, ptr %6, i64 220
  tail call void @llvm.memset.p0.i64(ptr noundef nonnull align 8 dereferenceable(16) %23, i8 0, i64 16, i1 false)
  store i32 3, ptr %24, align 4, !tbaa !30
  %25 = getelementptr inbounds nuw i8, ptr %6, i64 224
  store i64 -9223372036854775808, ptr %25, align 8, !tbaa !31
  store ptr %6, ptr %0, align 8, !tbaa !79
  store i32 %1, ptr %21, align 4, !tbaa !25
  br label %url_open_dyn_buf_internal.exit

url_open_dyn_buf_internal.exit:                   ; preds = %7, %4, %2
  %.0 = phi i32 [ -22, %2 ], [ 0, %7 ], [ -12, %4 ]
  ret i32 %.0
}